target datalayout = "e-m:e-p270:32:32-p271:32:32-p272:64:64-i64:64-i128:128-f80:128-n8:16:32:64-S128"
target triple = "x86_64-pc-linux-gnu"

%struct._GError = type { i32, i32, ptr }
%struct.GtkApi = type { i32, ptr, ptr, ptr, ptr, ptr, ptr, ptr, ptr, ptr, ptr, ptr, ptr, ptr, ptr, ptr, ptr, ptr, ptr, ptr, ptr, ptr, ptr, ptr, ptr, ptr, ptr, ptr, ptr, ptr, ptr, ptr, ptr, ptr, ptr, ptr, ptr, ptr, ptr, ptr, ptr, ptr, ptr, ptr, ptr, ptr, ptr, ptr, ptr, ptr, ptr, ptr, ptr, ptr, ptr, ptr, ptr, ptr, ptr, ptr, ptr, ptr, ptr, ptr, ptr, ptr, ptr, ptr, ptr, ptr, ptr, ptr, ptr, ptr, ptr, ptr, ptr, ptr, ptr, ptr, ptr, ptr, ptr, ptr, ptr, ptr, ptr, ptr, ptr, ptr, ptr, ptr, ptr, ptr, ptr, ptr, ptr, ptr, ptr, ptr, ptr, ptr, ptr, ptr, ptr }
%struct.XdgDesktopPortalApi = type { ptr, ptr, ptr, ptr }

@portal = hidden global ptr null, align 8
@stderr = external global ptr, align 8
@.str = private unnamed_addr constant [50 x i8] c"!!! %s:%i Error: domain %i code %i message: \22%s\22\0A\00", align 1
@gtk = external global ptr, align 8
@checkVersion.version = internal global i32 0, align 4
@.str.12 = private unnamed_addr constant [36 x i8] c"org.freedesktop.DBus.Properties.Get\00", align 1
@.str.13 = private unnamed_addr constant [5 x i8] c"(ss)\00", align 1
@.str.14 = private unnamed_addr constant [34 x i8] c"org.freedesktop.portal.ScreenCast\00", align 1
@.str.15 = private unnamed_addr constant [8 x i8] c"version\00", align 1
@.str.16 = private unnamed_addr constant [51 x i8] c"%s:%i !!! could not detect the screencast version\0A\00", align 1
@__func__.checkVersion = private unnamed_addr constant [13 x i8] c"checkVersion\00", align 1
@.str.17 = private unnamed_addr constant [4 x i8] c"(v)\00", align 1
@.str.18 = private unnamed_addr constant [48 x i8] c"%s:%i !!! could not get the screencast version\0A\00", align 1
@.str.19 = private unnamed_addr constant [38 x i8] c"%s:%i ScreenCast protocol version %d\0A\00", align 1
@.str.20 = private unnamed_addr constant [80 x i8] c"%s:%i !!! ScreenCast protocol version %d < 4, session restore is not available\0A\00", align 1

; Function Attrs: nounwind uwtable
define hidden void @errHandle(ptr noundef %0, ptr noundef %1, i32 noundef %2) #0 {
  %4 = alloca ptr, align 8
  %5 = alloca ptr, align 8
  %6 = alloca i32, align 4
  store ptr %0, ptr %4, align 8
  store ptr %1, ptr %5, align 8
  store i32 %2, ptr %6, align 4
  %7 = load ptr, ptr %4, align 8
  %8 = icmp ne ptr %7, null
  br i1 %8, label %9, label %23

9:                                                ; preds = %3
  %10 = load ptr, ptr @stderr, align 8
  %11 = load ptr, ptr %5, align 8
  %12 = load i32, ptr %6, align 4
  %13 = load ptr, ptr %4, align 8
  %14 = getelementptr inbounds %struct._GError, ptr %13, i32 0, i32 0
  %15 = load i32, ptr %14, align 8
  %16 = load ptr, ptr %4, align 8
  %17 = getelementptr inbounds %struct._GError, ptr %16, i32 0, i32 1
  %18 = load i32, ptr %17, align 4
  %19 = load ptr, ptr %4, align 8
  %20 = getelementptr inbounds %struct._GError, ptr %19, i32 0, i32 2
  %21 = load ptr, ptr %20, align 8
  %22 = call i32 (ptr, ptr, ...) @fprintf(ptr noundef %10, ptr noundef @.str, ptr noundef %11, i32 noundef %12, i32 noundef %15, i32 noundef %18, ptr noundef %21) #7
  br label %23

23:                                               ; preds = %9, %3
  %24 = load ptr, ptr %4, align 8
  %25 = icmp ne ptr %24, null
  br i1 %25, label %26, label %31

26:                                               ; preds = %23
  %27 = load ptr, ptr @gtk, align 8
  %28 = getelementptr inbounds %struct.GtkApi, ptr %27, i32 0, i32 98
  %29 = load ptr, ptr %28, align 8
  %30 = load ptr, ptr %4, align 8
  call void %29(ptr noundef %30)
  br label %31

31:                                               ; preds = %26, %23
  store ptr null, ptr %4, align 8
  ret void
}

; Function Attrs: nounwind uwtable
define hidden i32 @checkVersion() #0 {
  %1 = alloca i32, align 4
  %2 = alloca ptr, align 8
  %3 = alloca ptr, align 8
  %4 = alloca ptr, align 8
  %5 = load i32, ptr @checkVersion.version, align 4
  %6 = icmp eq i32 %5, 0
  br i1 %6, label %7, label %49

7:                                                ; preds = %0
  store ptr null, ptr %2, align 8
  %8 = load ptr, ptr @gtk, align 8
  %9 = getelementptr inbounds %struct.GtkApi, ptr %8, i32 0, i32 67
  %10 = load ptr, ptr %9, align 8
  %11 = load ptr, ptr @portal, align 8
  %12 = getelementptr inbounds %struct.XdgDesktopPortalApi, ptr %11, i32 0, i32 1
  %13 = load ptr, ptr %12, align 8
  %14 = load ptr, ptr @gtk, align 8
  %15 = getelementptr inbounds %struct.GtkApi, ptr %14, i32 0, i32 68
  %16 = load ptr, ptr %15, align 8
  %17 = call ptr (ptr, ...) %16(ptr noundef @.str.13, ptr noundef @.str.14, ptr noundef @.str.15)
  %18 = call ptr %10(ptr noundef %13, ptr noundef @.str.12, ptr noundef %17, i32 noundef 0, i32 noundef -1, ptr noundef null, ptr noundef null)
  store ptr %18, ptr %3, align 8
  %19 = load ptr, ptr %3, align 8
  %20 = icmp ne ptr %19, null
  br i1 %20, label %22, label %21

21:                                               ; preds = %7
  call void (ptr, ...) @debug_screencast(ptr noundef @.str.16, ptr noundef @__func__.checkVersion, i32 noundef 167, ptr noundef null)
  store i32 0, ptr %1, align 4
  br label %59

22:                                               ; preds = %7
  %23 = load ptr, ptr %2, align 8
  call void @errHandle(ptr noundef %23, ptr noundef @__func__.checkVersion, i32 noundef 171)
  store ptr null, ptr %4, align 8
  %24 = load ptr, ptr @gtk, align 8
  %25 = getelementptr inbounds %struct.GtkApi, ptr %24, i32 0, i32 72
  %26 = load ptr, ptr %25, align 8
  %27 = load ptr, ptr %3, align 8
  call void (ptr, ptr, ...) %26(ptr noundef %27, ptr noundef @.str.17, ptr noundef %4)
  %28 = load ptr, ptr %4, align 8
  %29 = icmp ne ptr %28, null
  br i1 %29, label %35, label %30

30:                                               ; preds = %22
  %31 = load ptr, ptr @gtk, align 8
  %32 = getelementptr inbounds %struct.GtkApi, ptr %31, i32 0, i32 77
  %33 = load ptr, ptr %32, align 8
  %34 = load ptr, ptr %3, align 8
  call void %33(ptr noundef %34)
  call void (ptr, ...) @debug_screencast(ptr noundef @.str.18, ptr noundef @__func__.checkVersion, i32 noundef 179, ptr noundef null)
  store i32 0, ptr %1, align 4
  br label %59

35:                                               ; preds = %22
  %36 = load ptr, ptr @gtk, align 8
  %37 = getelementptr inbounds %struct.GtkApi, ptr %36, i32 0, i32 74
  %38 = load ptr, ptr %37, align 8
  %39 = load ptr, ptr %4, align 8
  %40 = call i32 %38(ptr noundef %39)
  store i32 %40, ptr @checkVersion.version, align 4
  %41 = load ptr, ptr @gtk, align 8
  %42 = getelementptr inbounds %struct.GtkApi, ptr %41, i32 0, i32 77
  %43 = load ptr, ptr %42, align 8
  %44 = load ptr, ptr %4, align 8
  call void %43(ptr noundef %44)
  %45 = load ptr, ptr @gtk, align 8
  %46 = getelementptr inbounds %struct.GtkApi, ptr %45, i32 0, i32 77
  %47 = load ptr, ptr %46, align 8
  %48 = load ptr, ptr %3, align 8
  call void %47(ptr noundef %48)
  br label %49

49:                                               ; preds = %35, %0
  %50 = load i32, ptr @checkVersion.version, align 4
  call void (ptr, ...) @debug_screencast(ptr noundef @.str.19, ptr noundef @__func__.checkVersion, i32 noundef 190, i32 noundef %50)
  %51 = load i32, ptr @checkVersion.version, align 4
  %52 = icmp ult i32 %51, 4
  br i1 %52, label %53, label %55

53:                                               ; preds = %49
  %54 = load i32, ptr @checkVersion.version, align 4
  call void (ptr, ...) @debug_screencast(ptr noundef @.str.20, ptr noundef @__func__.checkVersion, i32 noundef 194, i32 noundef %54)
  br label %55

55:                                               ; preds = %53, %49
  %56 = load i32, ptr @checkVersion.version, align 4
  %57 = icmp uge i32 %56, 4
  %58 = zext i1 %57 to i32
  store i32 %58, ptr %1, align 4
  br label %59

59:                                               ; preds = %55, %30, %21
  %60 = load i32, ptr %1, align 4
  ret i32 %60
}