; Function Attrs: nounwind uwtable
define hidden range(i32 0, 2) i32 @checkVersion() local_unnamed_addr #0 {
  %1 = alloca ptr, align 8
  %2 = load i32, ptr @checkVersion.version, align 4
  %3 = icmp eq i32 %2, 0
  br i1 %3, label %4, label %36

4:                                                ; preds = %0
  %5 = load ptr, ptr @gtk, align 8
  %6 = getelementptr inbounds i8, ptr %5, i64 536
  %7 = load ptr, ptr %6, align 8
  %8 = load ptr, ptr @portal, align 8
  %9 = getelementptr inbounds i8, ptr %8, i64 8
  %10 = load ptr, ptr %9, align 8
  %11 = getelementptr inbounds i8, ptr %5, i64 544
  %12 = load ptr, ptr %11, align 8
  %13 = tail call ptr (ptr, ...) %12(ptr noundef nonnull @.str.13, ptr noundef nonnull @.str.14, ptr noundef nonnull @.str.15) #9
  %14 = tail call ptr %7(ptr noundef %10, ptr noundef nonnull @.str.12, ptr noundef %13, i32 noundef 0, i32 noundef -1, ptr noundef null, ptr noundef null) #9
  %.not = icmp eq ptr %14, null
  br i1 %.not, label %15, label %16

15:                                               ; preds = %4
  tail call void (ptr, ...) @debug_screencast(ptr noundef nonnull @.str.16, ptr noundef nonnull @__func__.checkVersion, i32 noundef 167, ptr noundef null) #9
  br label %43

16:                                               ; preds = %4
  store ptr null, ptr %1, align 8
  %17 = load ptr, ptr @gtk, align 8
  %18 = getelementptr inbounds i8, ptr %17, i64 576
  %19 = load ptr, ptr %18, align 8
  call void (ptr, ptr, ...) %19(ptr noundef nonnull %14, ptr noundef nonnull @.str.17, ptr noundef nonnull %1) #9
  %20 = load ptr, ptr %1, align 8
  %.not8 = icmp eq ptr %20, null
  %21 = load ptr, ptr @gtk, align 8
  br i1 %.not8, label %22, label %25

22:                                               ; preds = %16
  %23 = getelementptr inbounds i8, ptr %21, i64 616
  %24 = load ptr, ptr %23, align 8
  call void %24(ptr noundef nonnull %14) #9
  call void (ptr, ...) @debug_screencast(ptr noundef nonnull @.str.18, ptr noundef nonnull @__func__.checkVersion, i32 noundef 179, ptr noundef null) #9
  br label %43

25:                                               ; preds = %16
  %26 = getelementptr inbounds i8, ptr %21, i64 592
  %27 = load ptr, ptr %26, align 8
  %28 = call i32 %27(ptr noundef nonnull %20) #9
  store i32 %28, ptr @checkVersion.version, align 4
  %29 = load ptr, ptr @gtk, align 8
  %30 = getelementptr inbounds i8, ptr %29, i64 616
  %31 = load ptr, ptr %30, align 8
  %32 = load ptr, ptr %1, align 8
  call void %31(ptr noundef %32) #9
  %33 = load ptr, ptr @gtk, align 8
  %34 = getelementptr inbounds i8, ptr %33, i64 616
  %35 = load ptr, ptr %34, align 8
  call void %35(ptr noundef nonnull %14) #9
  %.pre = load i32, ptr @checkVersion.version, align 4
  br label %36

36:                                               ; preds = %25, %0
  %37 = phi i32 [ %.pre, %25 ], [ %2, %0 ]
  call void (ptr, ...) @debug_screencast(ptr noundef nonnull @.str.19, ptr noundef nonnull @__func__.checkVersion, i32 noundef 190, i32 noundef %37) #9
  %38 = load i32, ptr @checkVersion.version, align 4
  %39 = icmp ult i32 %38, 4
  br i1 %39, label %40, label %43

40:                                               ; preds = %36
  call void (ptr, ...) @debug_screencast(ptr noundef nonnull @.str.20, ptr noundef nonnull @__func__.checkVersion, i32 noundef 194, i32 noundef %38) #9
  %.pre9 = load i32, ptr @checkVersion.version, align 4
  %41 = icmp ugt i32 %.pre9, 3
  %42 = zext i1 %41 to i32
  br label %43

43:                                               ; preds = %36, %40, %22, %15
  %.0 = phi i32 [ 0, %22 ], [ 0, %15 ], [ %42, %40 ], [ 1, %36 ]
  ret i32 %.0
}